target datalayout = "e-m:e-p270:32:32-p271:32:32-p272:64:64-i64:64-i128:128-f80:128-n8:16:32:64-S128"
target triple = "x86_64-pc-linux-gnu"

%"class.folly::Range" = type { ptr, ptr }

@.str = private unnamed_addr constant [31 x i8] c"Unknown async socket exception\00", align 1
@.str.1 = private unnamed_addr constant [16 x i8] c"Socket not open\00", align 1
@.str.2 = private unnamed_addr constant [20 x i8] c"Socket already open\00", align 1
@.str.3 = private unnamed_addr constant [10 x i8] c"Timed out\00", align 1
@.str.4 = private unnamed_addr constant [12 x i8] c"End of file\00", align 1
@.str.5 = private unnamed_addr constant [12 x i8] c"Interrupted\00", align 1
@.str.6 = private unnamed_addr constant [18 x i8] c"Invalid arguments\00", align 1
@.str.7 = private unnamed_addr constant [15 x i8] c"Corrupted Data\00", align 1
@.str.8 = private unnamed_addr constant [15 x i8] c"Internal error\00", align 1
@.str.9 = private unnamed_addr constant [14 x i8] c"Not supported\00", align 1
@.str.10 = private unnamed_addr constant [14 x i8] c"Invalid state\00", align 1
@.str.11 = private unnamed_addr constant [10 x i8] c"SSL error\00", align 1
@.str.12 = private unnamed_addr constant [15 x i8] c"Could not bind\00", align 1
@.str.13 = private unnamed_addr constant [14 x i8] c"Network error\00", align 1
@.str.14 = private unnamed_addr constant [20 x i8] c"Early data rejected\00", align 1
@.str.15 = private unnamed_addr constant [26 x i8] c"IO operation was canceled\00", align 1
@.str.16 = private unnamed_addr constant [25 x i8] c"(Invalid exception type)\00", align 1

; Function Attrs: mustprogress nounwind uwtable
define linkonce_odr noundef i64 @_ZN5folly6detail25constexpr_strlen_internalIcLm0EEEmPKT_i(ptr noundef %0, i32 noundef %1) #1 comdat {
  %3 = alloca ptr, align 8
  %4 = alloca i32, align 4
  store ptr %0, ptr %3, align 8, !tbaa !14
  store i32 %1, ptr %4, align 4, !tbaa !19
  %5 = load ptr, ptr %3, align 8, !tbaa !14
  %6 = call i64 @strlen(ptr noundef %5) #21
  ret i64 %6
}

; Function Attrs: mustprogress nounwind uwtable
define linkonce_odr noundef i64 @_ZN5folly16constexpr_strlenIcEEmPKT_(ptr noundef %0) #1 comdat {
  %2 = alloca ptr, align 8
  store ptr %0, ptr %2, align 8, !tbaa !14
  %3 = load ptr, ptr %2, align 8, !tbaa !14
  %4 = call noundef i64 @_ZN5folly6detail25constexpr_strlen_internalIcLm0EEEmPKT_i(ptr noundef %3, i32 noundef 0) #21
  ret i64 %4
}

; Function Attrs: mustprogress nounwind uwtable
define linkonce_odr void @_ZN5folly5RangeIPKcEC2ES2_(ptr noundef nonnull align 8 dereferenceable(16) %0, ptr noundef %1) unnamed_addr #1 comdat align 2 {
  %3 = alloca ptr, align 8
  %4 = alloca ptr, align 8
  store ptr %0, ptr %3, align 8, !tbaa !11
  store ptr %1, ptr %4, align 8, !tbaa !14
  %5 = load ptr, ptr %3, align 8
  %6 = getelementptr inbounds nuw %"class.folly::Range", ptr %5, i32 0, i32 0
  %7 = load ptr, ptr %4, align 8, !tbaa !14
  store ptr %7, ptr %6, align 8, !tbaa !16
  %8 = getelementptr inbounds nuw %"class.folly::Range", ptr %5, i32 0, i32 1
  %9 = load ptr, ptr %4, align 8, !tbaa !14
  %10 = load ptr, ptr %4, align 8, !tbaa !14
  %11 = call noundef i64 @_ZN5folly16constexpr_strlenIcEEmPKT_(ptr noundef %10) #21
  %12 = getelementptr inbounds nuw i8, ptr %9, i64 %11
  store ptr %12, ptr %8, align 8, !tbaa !18
  ret void
}

; Function Attrs: mustprogress uwtable
define { ptr, ptr } @_ZN5folly20AsyncSocketException22getExceptionTypeStringENS0_24AsyncSocketExceptionTypeE(i32 noundef %0) #0 align 2 {
  %2 = alloca %"class.folly::Range", align 8
  %3 = alloca i32, align 4
  store i32 %0, ptr %3, align 4, !tbaa !7
  %4 = load i32, ptr %3, align 4, !tbaa !7
  switch i32 %4, label %21 [
    i32 0, label %5
    i32 1, label %6
    i32 2, label %7
    i32 3, label %8
    i32 4, label %9
    i32 5, label %10
    i32 6, label %11
    i32 7, label %12
    i32 8, label %13
    i32 9, label %14
    i32 10, label %15
    i32 12, label %16
    i32 13, label %17
    i32 15, label %18
    i32 16, label %19
    i32 17, label %20
  ]

5:                                                ; preds = %1
  call void @_ZN5folly5RangeIPKcEC2ES2_(ptr noundef nonnull align 8 dereferenceable(16) %2, ptr noundef @.str)
  br label %22

6:                                                ; preds = %1
  call void @_ZN5folly5RangeIPKcEC2ES2_(ptr noundef nonnull align 8 dereferenceable(16) %2, ptr noundef @.str.1)
  br label %22

7:                                                ; preds = %1
  call void @_ZN5folly5RangeIPKcEC2ES2_(ptr noundef nonnull align 8 dereferenceable(16) %2, ptr noundef @.str.2)
  br label %22

8:                                                ; preds = %1
  call void @_ZN5folly5RangeIPKcEC2ES2_(ptr noundef nonnull align 8 dereferenceable(16) %2, ptr noundef @.str.3)
  br label %22

9:                                                ; preds = %1
  call void @_ZN5folly5RangeIPKcEC2ES2_(ptr noundef nonnull align 8 dereferenceable(16) %2, ptr noundef @.str.4)
  br label %22

10:                                               ; preds = %1
  call void @_ZN5folly5RangeIPKcEC2ES2_(ptr noundef nonnull align 8 dereferenceable(16) %2, ptr noundef @.str.5)
  br label %22

11:                                               ; preds = %1
  call void @_ZN5folly5RangeIPKcEC2ES2_(ptr noundef nonnull align 8 dereferenceable(16) %2, ptr noundef @.str.6)
  br label %22

12:                                               ; preds = %1
  call void @_ZN5folly5RangeIPKcEC2ES2_(ptr noundef nonnull align 8 dereferenceable(16) %2, ptr noundef @.str.7)
  br label %22

13:                                               ; preds = %1
  call void @_ZN5folly5RangeIPKcEC2ES2_(ptr noundef nonnull align 8 dereferenceable(16) %2, ptr noundef @.str.8)
  br label %22

14:                                               ; preds = %1
  call void @_ZN5folly5RangeIPKcEC2ES2_(ptr noundef nonnull align 8 dereferenceable(16) %2, ptr noundef @.str.9)
  br label %22

15:                                               ; preds = %1
  call void @_ZN5folly5RangeIPKcEC2ES2_(ptr noundef nonnull align 8 dereferenceable(16) %2, ptr noundef @.str.10)
  br label %22

16:                                               ; preds = %1
  call void @_ZN5folly5RangeIPKcEC2ES2_(ptr noundef nonnull align 8 dereferenceable(16) %2, ptr noundef @.str.11)
  br label %22

17:                                               ; preds = %1
  call void @_ZN5folly5RangeIPKcEC2ES2_(ptr noundef nonnull align 8 dereferenceable(16) %2, ptr noundef @.str.12)
  br label %22

18:                                               ; preds = %1
  call void @_ZN5folly5RangeIPKcEC2ES2_(ptr noundef nonnull align 8 dereferenceable(16) %2, ptr noundef @.str.13)
  br label %22

19:                                               ; preds = %1
  call void @_ZN5folly5RangeIPKcEC2ES2_(ptr noundef nonnull align 8 dereferenceable(16) %2, ptr noundef @.str.14)
  br label %22

20:                                               ; preds = %1
  call void @_ZN5folly5RangeIPKcEC2ES2_(ptr noundef nonnull align 8 dereferenceable(16) %2, ptr noundef @.str.15)
  br label %22

21:                                               ; preds = %1
  call void @_ZN5folly5RangeIPKcEC2ES2_(ptr noundef nonnull align 8 dereferenceable(16) %2, ptr noundef @.str.16)
  br label %22

22:                                               ; preds = %21, %20, %19, %18, %17, %16, %15, %14, %13, %12, %11, %10, %9, %8, %7, %6, %5
  %23 = load { ptr, ptr }, ptr %2, align 8
  ret { ptr, ptr } %23
}