; Function Attrs: mustprogress nofree norecurse nosync nounwind willreturn memory(none) uwtable
define { ptr, ptr } @_ZN5folly20AsyncSocketException22getExceptionTypeStringENS0_24AsyncSocketExceptionTypeE(i32 noundef %0) local_unnamed_addr #0 align 2 {
  %2 = icmp ult i32 %0, 18
  br i1 %2, label %switch.lookup, label %5

switch.lookup:                                    ; preds = %1
  %3 = zext nneg i32 %0 to i64
  %switch.gep = getelementptr inbounds nuw [18 x ptr], ptr @switch.table._ZN5folly20AsyncSocketException10getMessageENS0_24AsyncSocketExceptionTypeERKNSt7__cxx1112basic_stringIcSt11char_traitsIcESaIcEEEi.3, i64 0, i64 %3
  %switch.load = load ptr, ptr %switch.gep, align 8
  %4 = zext nneg i32 %0 to i64
  %switch.gep1 = getelementptr inbounds nuw [18 x ptr], ptr @switch.table._ZN5folly20AsyncSocketException10getMessageENS0_24AsyncSocketExceptionTypeERKNSt7__cxx1112basic_stringIcSt11char_traitsIcESaIcEEEi.4, i64 0, i64 %4
  %switch.load2 = load ptr, ptr %switch.gep1, align 8
  br label %5

5:                                                ; preds = %1, %switch.lookup
  %.sroa.18.0 = phi ptr [ %switch.load, %switch.lookup ], [ getelementptr inbounds nuw (i8, ptr @.str.16, i64 24), %1 ]
  %.sroa.0.0 = phi ptr [ %switch.load2, %switch.lookup ], [ @.str.16, %1 ]
  %.fca.0.insert = insertvalue { ptr, ptr } poison, ptr %.sroa.0.0, 0
  %.fca.1.insert = insertvalue { ptr, ptr } %.fca.0.insert, ptr %.sroa.18.0, 1
  ret { ptr, ptr } %.fca.1.insert
}